target datalayout = "e-m:e-p270:32:32-p271:32:32-p272:64:64-i64:64-i128:128-f80:128-n8:16:32:64-S128"
target triple = "x86_64-pc-linux-gnu"

%struct.lzma_mf_s = type { ptr, i32, i32, i32, i32, i32, i32, i32, i32, i32, ptr, ptr, ptr, ptr, i32, i32, i32, i32, i32, i32, i32, i32, i32 }

; Function Attrs: nounwind uwtable
define dso_local i64 @lzma_lz_encoder_memusage(ptr noundef %0) #0 {
  %2 = alloca i64, align 8
  %3 = alloca ptr, align 8
  %4 = alloca %struct.lzma_mf_s, align 8
  %5 = alloca i32, align 4
  store ptr %0, ptr %3, align 8, !tbaa !4
  call void @llvm.lifetime.start.p0(i64 120, ptr %4) #7
  call void @llvm.memset.p0.i64(ptr align 8 %4, i8 0, i64 120, i1 false)
  %6 = load ptr, ptr %3, align 8, !tbaa !4
  %7 = call zeroext i1 @lz_encoder_prepare(ptr noundef %4, ptr noundef null, ptr noundef %6)
  br i1 %7, label %8, label %9

8:                                                ; preds = %1
  store i64 -1, ptr %2, align 8
  store i32 1, ptr %5, align 4
  br label %23

9:                                                ; preds = %1
  %10 = getelementptr inbounds nuw %struct.lzma_mf_s, ptr %4, i32 0, i32 21
  %11 = load i32, ptr %10, align 4, !tbaa !8
  %12 = zext i32 %11 to i64
  %13 = getelementptr inbounds nuw %struct.lzma_mf_s, ptr %4, i32 0, i32 22
  %14 = load i32, ptr %13, align 8, !tbaa !13
  %15 = zext i32 %14 to i64
  %16 = add i64 %12, %15
  %17 = mul i64 %16, 4
  %18 = getelementptr inbounds nuw %struct.lzma_mf_s, ptr %4, i32 0, i32 1
  %19 = load i32, ptr %18, align 8, !tbaa !14
  %20 = zext i32 %19 to i64
  %21 = add i64 %17, %20
  %22 = add i64 %21, 240
  store i64 %22, ptr %2, align 8
  store i32 1, ptr %5, align 4
  br label %23

23:                                               ; preds = %9, %8
  call void @llvm.lifetime.end.p0(i64 120, ptr %4) #7
  %24 = load i64, ptr %2, align 8
  ret i64 %24
}