; Function Attrs: nounwind uwtable
define dso_local range(i64 -1, 38654705896) i64 @lzma_lz_encoder_memusage(ptr noundef readonly captures(none) %0) local_unnamed_addr #0 {
  %2 = alloca %struct.lzma_mf_s, align 8
  call void @llvm.lifetime.start.p0(i64 120, ptr nonnull %2) #7
  call void @llvm.memset.p0.i64(ptr noundef nonnull align 8 dereferenceable(120) %2, i8 0, i64 120, i1 false)
  %3 = call fastcc zeroext i1 @lz_encoder_prepare(ptr noundef %2, ptr noundef null, ptr noundef %0)
  br i1 %3, label %18, label %4

4:                                                ; preds = %1
  %5 = getelementptr inbounds nuw i8, ptr %2, i64 108
  %6 = load i32, ptr %5, align 4, !tbaa !4
  %7 = zext i32 %6 to i64
  %8 = getelementptr inbounds nuw i8, ptr %2, i64 112
  %9 = load i32, ptr %8, align 8, !tbaa !12
  %10 = zext i32 %9 to i64
  %11 = add nuw nsw i64 %10, %7
  %12 = shl nuw nsw i64 %11, 2
  %13 = getelementptr inbounds nuw i8, ptr %2, i64 8
  %14 = load i32, ptr %13, align 8, !tbaa !13
  %15 = zext i32 %14 to i64
  %16 = add nuw nsw i64 %15, 240
  %17 = add nuw nsw i64 %16, %12
  br label %18

18:                                               ; preds = %1, %4
  %.0 = phi i64 [ %17, %4 ], [ -1, %1 ]
  call void @llvm.lifetime.end.p0(i64 120, ptr nonnull %2) #7
  ret i64 %.0
}